Archive member included to satisfy reference by file (symbol)

c:/program files/microchip/xc32/v2.41/bin/bin/../../lib/gcc/pic32c/6.2.1/../../../../pic32c/lib/v7e-m/fpv4-sp/hard\libpic32c.a(data_init.o)
                              build/default/debug/_ext/1171490990/startup_xc32.o (__pic32c_data_initialization)
c:/program files/microchip/xc32/v2.41/bin/bin/../../lib/gcc/pic32c/6.2.1/v7e-m/fpv4-sp/hard\libgcc.a(_aeabi_uldivmod.o)
                              build/default/debug/_ext/504274921/plib_sercom0_usart.o (__aeabi_uldivmod)
c:/program files/microchip/xc32/v2.41/bin/bin/../../lib/gcc/pic32c/6.2.1/v7e-m/fpv4-sp/hard\libgcc.a(_udivmoddi4.o)
                              c:/program files/microchip/xc32/v2.41/bin/bin/../../lib/gcc/pic32c/6.2.1/v7e-m/fpv4-sp/hard\libgcc.a(_aeabi_uldivmod.o) (__udivmoddi4)
c:/program files/microchip/xc32/v2.41/bin/bin/../../lib/gcc/pic32c/6.2.1/v7e-m/fpv4-sp/hard\libgcc.a(_dvmd_tls.o)
                              c:/program files/microchip/xc32/v2.41/bin/bin/../../lib/gcc/pic32c/6.2.1/v7e-m/fpv4-sp/hard\libgcc.a(_aeabi_uldivmod.o) (__aeabi_ldiv0)
c:/program files/microchip/xc32/v2.41/bin/bin/../../lib/gcc/pic32c/6.2.1/../../../../pic32c/lib/v7e-m/fpv4-sp/hard\libg_nano.a(lib_a-init.o)
                              build/default/debug/_ext/1171490990/startup_xc32.o (__libc_init_array)
c:/program files/microchip/xc32/v2.41/bin/bin/../../lib/gcc/pic32c/6.2.1/../../../../pic32c/lib/v7e-m/fpv4-sp/hard\libg_nano.a(lib_a-memcpy-stub.o)
                              build/default/debug/_ext/1593096446/plib_nvmctrl.o (memcpy)

Microchip PIC32 Memory-Usage Report

ROM Program-Memory Usage
section                    address  length [bytes]      (dec)  Description
-------                 ----------  -------------------------  -----------
.vectors                         0          0x264         612   
.text                        0x264           0x20          32  App's exec code 
.text.CLOCK_Initialize       0x284           0xe8         232   
.text.Reset_Handler          0x36c           0x94         148   
.text.main                   0x400           0x90         144   
.text.__pic32c_data_ini      0x490           0x80         128   
.dinit                       0x510           0x80         128   
.text.SERCOM5_USART_Rea      0x590           0x54          84   
.text.__libc_init_array      0x5e4           0x48          72   
.text                        0x62c           0x40          64  App's exec code 
.text.PORT_Initialize        0x66c           0x3c          60   
.text.SERCOM5_USART_Wri      0x6a8           0x3c          60   
.text.SERCOM0_USART_Ini      0x6e4           0x34          52   
.text.SERCOM5_USART_Ini      0x718           0x34          52   
.text.SERCOM5_USART_Err      0x74c           0x30          48   
.text.NVIC_Initialize        0x77c           0x24          36   
.text.SYS_Initialize         0x7a0           0x20          32   
.text.SERCOM5_USART_Err      0x7c0           0x1c          28   
.text.delay_1                0x7dc           0x1c          28   
.text.NVMCTRL_Initializ      0x7f8           0x10          16   
.text.SERCOM5_USART_Rec      0x808           0x10          16   
.text.Dummy_Handler          0x818            0x4           4   
.text.NonMaskableInt_Ha      0x81c            0x4           4   
.text.HardFault_Handler      0x820            0x4           4   
.text.DebugMonitor_Hand      0x824            0x4           4   
.text.MemoryManagement_      0x828            0x4           4   
.text.BusFault_Handler       0x82c            0x4           4   
.text.UsageFault_Handle      0x830            0x4           4   
.text.EVSYS_Initialize       0x834            0x2           2   
.text.Dummy_App_Func         0x836            0x2           2   
      Total ROM used  :       0x838        2104  0.2% of 0x100000
        --------------------------------------------------------------------------
         Total Program Memory used  :       0x838        2104  0.2% of 0x100000
        --------------------------------------------------------------------------


RAM Data-Memory Usage
section                    address  length [bytes]      (dec)  Description
-------                 ----------  -------------------------  -----------
.bss.receiveBuffer      0x20000000           0x32          50   
.data.errorMessage      0x20000034           0x27          39   
.bss.data               0x2000005b            0x1           1   
.bss                    0x2000005c           0x1c          28  Uninitialized data 
.data.messageStart      0x20000078            0x5           5   
         Total RAM used  :        0x7b         123  0.0% of 0x40000
        --------------------------------------------------------------------------
            Total Data Memory used  :        0x7b         123  0.0% of 0x40000
        --------------------------------------------------------------------------


Dynamic Data-Memory Reservation
section                    address  length [bytes]      (dec)  Description
-------                 ----------  -------------------------  -----------
heap                    0x20000080          0x200         512  Reserved for heap 
stack                   0x20000298        0x3fd58      261464  Reserved for stack 

        --------------------------------------------------------------------------

Discarded input sections

 .text          0x00000000        0x0 c:/program files/microchip/xc32/v2.41/bin/bin/../../lib/gcc/pic32c/6.2.1/v7e-m/fpv4-sp/hard/crti.o
 .data          0x00000000        0x0 c:/program files/microchip/xc32/v2.41/bin/bin/../../lib/gcc/pic32c/6.2.1/v7e-m/fpv4-sp/hard/crti.o
 .bss           0x00000000        0x0 c:/program files/microchip/xc32/v2.41/bin/bin/../../lib/gcc/pic32c/6.2.1/v7e-m/fpv4-sp/hard/crti.o
 .data          0x00000000        0x4 c:/program files/microchip/xc32/v2.41/bin/bin/../../lib/gcc/pic32c/6.2.1/v7e-m/fpv4-sp/hard/crtbegin.o
 .text          0x00000000        0x0 build/default/debug/_ext/1984496892/plib_clock.o
 .data          0x00000000        0x0 build/default/debug/_ext/1984496892/plib_clock.o
 .bss           0x00000000        0x0 build/default/debug/_ext/1984496892/plib_clock.o
 .text          0x00000000        0x0 build/default/debug/_ext/1865131932/plib_cmcc.o
 .data          0x00000000        0x0 build/default/debug/_ext/1865131932/plib_cmcc.o
 .bss           0x00000000        0x0 build/default/debug/_ext/1865131932/plib_cmcc.o
 .text.CMCC_Disable
                0x00000000       0x18 build/default/debug/_ext/1865131932/plib_cmcc.o
 .text.CMCC_EnableICache
                0x00000000       0x28 build/default/debug/_ext/1865131932/plib_cmcc.o
 .text.CMCC_DisableICache
                0x00000000       0x28 build/default/debug/_ext/1865131932/plib_cmcc.o
 .text.CMCC_EnableDCache
                0x00000000       0x28 build/default/debug/_ext/1865131932/plib_cmcc.o
 .text.CMCC_DisableDCache
                0x00000000       0x28 build/default/debug/_ext/1865131932/plib_cmcc.o
 .text.CMCC_InvalidateAll
                0x00000000       0x20 build/default/debug/_ext/1865131932/plib_cmcc.o
 .debug_info    0x00000000      0x595 build/default/debug/_ext/1865131932/plib_cmcc.o
 .debug_abbrev  0x00000000       0x93 build/default/debug/_ext/1865131932/plib_cmcc.o
 .debug_aranges
                0x00000000       0x48 build/default/debug/_ext/1865131932/plib_cmcc.o
 .debug_ranges  0x00000000       0x38 build/default/debug/_ext/1865131932/plib_cmcc.o
 .debug_line    0x00000000      0x1c3 build/default/debug/_ext/1865131932/plib_cmcc.o
 .debug_str     0x00000000        0x0 build/default/debug/_ext/1865131932/plib_cmcc.o
 .comment       0x00000000       0x3d build/default/debug/_ext/1865131932/plib_cmcc.o
 .debug_frame   0x00000000       0x70 build/default/debug/_ext/1865131932/plib_cmcc.o
 .ARM.attributes
                0x00000000       0x39 build/default/debug/_ext/1865131932/plib_cmcc.o
 .text          0x00000000        0x0 build/default/debug/_ext/1986646378/plib_evsys.o
 .data          0x00000000        0x0 build/default/debug/_ext/1986646378/plib_evsys.o
 .bss           0x00000000        0x0 build/default/debug/_ext/1986646378/plib_evsys.o
 .text          0x00000000        0x0 build/default/debug/_ext/1865468468/plib_nvic.o
 .data          0x00000000        0x0 build/default/debug/_ext/1865468468/plib_nvic.o
 .bss           0x00000000        0x0 build/default/debug/_ext/1865468468/plib_nvic.o
 .text.NVIC_INT_Enable
                0x00000000        0x8 build/default/debug/_ext/1865468468/plib_nvic.o
 .text.NVIC_INT_Disable
                0x00000000       0x12 build/default/debug/_ext/1865468468/plib_nvic.o
 .text.NVIC_INT_Restore
                0x00000000       0x12 build/default/debug/_ext/1865468468/plib_nvic.o
 .text          0x00000000        0x0 build/default/debug/_ext/1593096446/plib_nvmctrl.o
 .data          0x00000000        0x0 build/default/debug/_ext/1593096446/plib_nvmctrl.o
 .bss           0x00000000        0x0 build/default/debug/_ext/1593096446/plib_nvmctrl.o
 .text.NVMCTRL_Read
                0x00000000       0x10 build/default/debug/_ext/1593096446/plib_nvmctrl.o
 .text.NVMCTRL_SetWriteMode
                0x00000000       0x14 build/default/debug/_ext/1593096446/plib_nvmctrl.o
 .text.NVMCTRL_QuadWordWrite
                0x00000000       0x4c build/default/debug/_ext/1593096446/plib_nvmctrl.o
 .text.NVMCTRL_DoubleWordWrite
                0x00000000       0x40 build/default/debug/_ext/1593096446/plib_nvmctrl.o
 .text.NVMCTRL_PageWrite
                0x00000000       0x38 build/default/debug/_ext/1593096446/plib_nvmctrl.o
 .text.NVMCTRL_BlockErase
                0x00000000       0x1c build/default/debug/_ext/1593096446/plib_nvmctrl.o
 .text.NVMCTRL_ErrorGet
                0x00000000       0x24 build/default/debug/_ext/1593096446/plib_nvmctrl.o
 .text.NVMCTRL_StatusGet
                0x00000000        0xc build/default/debug/_ext/1593096446/plib_nvmctrl.o
 .text.NVMCTRL_IsBusy
                0x00000000       0x10 build/default/debug/_ext/1593096446/plib_nvmctrl.o
 .text.NVMCTRL_RegionLock
                0x00000000       0x10 build/default/debug/_ext/1593096446/plib_nvmctrl.o
 .text.NVMCTRL_RegionUnlock
                0x00000000       0x10 build/default/debug/_ext/1593096446/plib_nvmctrl.o
 .text.NVMCTRL_RegionLockStatusGet
                0x00000000        0xc build/default/debug/_ext/1593096446/plib_nvmctrl.o
 .text.NVMCTRL_SmartEEPROM_IsBusy
                0x00000000       0x10 build/default/debug/_ext/1593096446/plib_nvmctrl.o
 .text.NVMCTRL_SmartEEPROMStatusGet
                0x00000000        0xc build/default/debug/_ext/1593096446/plib_nvmctrl.o
 .text.NVMCTRL_SmartEEPROM_IsActiveSectorFull
                0x00000000       0x10 build/default/debug/_ext/1593096446/plib_nvmctrl.o
 .text.NVMCTRL_BankSwap
                0x00000000       0x10 build/default/debug/_ext/1593096446/plib_nvmctrl.o
 .text.NVMCTRL_SmartEEPROMSectorReallocate
                0x00000000       0x10 build/default/debug/_ext/1593096446/plib_nvmctrl.o
 .text.NVMCTRL_SmartEEPROMFlushPageBuffer
                0x00000000       0x18 build/default/debug/_ext/1593096446/plib_nvmctrl.o
 .bss.nvm_error
                0x00000000        0x2 build/default/debug/_ext/1593096446/plib_nvmctrl.o
 .text          0x00000000        0x0 build/default/debug/_ext/1865521619/plib_port.o
 .data          0x00000000        0x0 build/default/debug/_ext/1865521619/plib_port.o
 .bss           0x00000000        0x0 build/default/debug/_ext/1865521619/plib_port.o
 .text.PORT_GroupRead
                0x00000000        0x4 build/default/debug/_ext/1865521619/plib_port.o
 .text.PORT_GroupWrite
                0x00000000        0xc build/default/debug/_ext/1865521619/plib_port.o
 .text.PORT_GroupLatchRead
                0x00000000        0x4 build/default/debug/_ext/1865521619/plib_port.o
 .text.PORT_GroupSet
                0x00000000        0x4 build/default/debug/_ext/1865521619/plib_port.o
 .text.PORT_GroupClear
                0x00000000        0x4 build/default/debug/_ext/1865521619/plib_port.o
 .text.PORT_GroupToggle
                0x00000000        0x4 build/default/debug/_ext/1865521619/plib_port.o
 .text.PORT_GroupInputEnable
                0x00000000        0x4 build/default/debug/_ext/1865521619/plib_port.o
 .text.PORT_GroupOutputEnable
                0x00000000        0x4 build/default/debug/_ext/1865521619/plib_port.o
 .text.PORT_PinPeripheralFunctionConfig
                0x00000000       0x4a build/default/debug/_ext/1865521619/plib_port.o
 .text.PORT_PinGPIOConfig
                0x00000000       0x20 build/default/debug/_ext/1865521619/plib_port.o
 .text          0x00000000        0x0 build/default/debug/_ext/504274921/plib_sercom0_usart.o
 .data          0x00000000        0x0 build/default/debug/_ext/504274921/plib_sercom0_usart.o
 .bss           0x00000000        0x0 build/default/debug/_ext/504274921/plib_sercom0_usart.o
 .text.SERCOM0_USART_ErrorClear
                0x00000000       0x30 build/default/debug/_ext/504274921/plib_sercom0_usart.o
 .text.SERCOM0_USART_FrequencyGet
                0x00000000        0x8 build/default/debug/_ext/504274921/plib_sercom0_usart.o
 .text.SERCOM0_USART_SerialSetup
                0x00000000      0x128 build/default/debug/_ext/504274921/plib_sercom0_usart.o
 .text.SERCOM0_USART_ErrorGet
                0x00000000       0x1c build/default/debug/_ext/504274921/plib_sercom0_usart.o
 .text.SERCOM0_USART_TransmitterEnable
                0x00000000       0x18 build/default/debug/_ext/504274921/plib_sercom0_usart.o
 .text.SERCOM0_USART_TransmitterDisable
                0x00000000       0x18 build/default/debug/_ext/504274921/plib_sercom0_usart.o
 .text.SERCOM0_USART_Write
                0x00000000       0x3c build/default/debug/_ext/504274921/plib_sercom0_usart.o
 .text.SERCOM0_USART_TransmitterIsReady
                0x00000000       0x10 build/default/debug/_ext/504274921/plib_sercom0_usart.o
 .text.SERCOM0_USART_TransmitComplete
                0x00000000       0x10 build/default/debug/_ext/504274921/plib_sercom0_usart.o
 .text.SERCOM0_USART_WriteByte
                0x00000000       0x18 build/default/debug/_ext/504274921/plib_sercom0_usart.o
 .text.SERCOM0_USART_ReceiverEnable
                0x00000000       0x18 build/default/debug/_ext/504274921/plib_sercom0_usart.o
 .text.SERCOM0_USART_ReceiverDisable
                0x00000000       0x18 build/default/debug/_ext/504274921/plib_sercom0_usart.o
 .text.SERCOM0_USART_Read
                0x00000000       0x54 build/default/debug/_ext/504274921/plib_sercom0_usart.o
 .text.SERCOM0_USART_ReceiverIsReady
                0x00000000       0x10 build/default/debug/_ext/504274921/plib_sercom0_usart.o
 .text.SERCOM0_USART_ReadByte
                0x00000000        0xc build/default/debug/_ext/504274921/plib_sercom0_usart.o
 .text          0x00000000        0x0 build/default/debug/_ext/504274921/plib_sercom5_usart.o
 .data          0x00000000        0x0 build/default/debug/_ext/504274921/plib_sercom5_usart.o
 .bss           0x00000000        0x0 build/default/debug/_ext/504274921/plib_sercom5_usart.o
 .text.SERCOM5_USART_FrequencyGet
                0x00000000        0x8 build/default/debug/_ext/504274921/plib_sercom5_usart.o
 .text.SERCOM5_USART_SerialSetup
                0x00000000      0x128 build/default/debug/_ext/504274921/plib_sercom5_usart.o
 .text.SERCOM5_USART_TransmitterEnable
                0x00000000       0x18 build/default/debug/_ext/504274921/plib_sercom5_usart.o
 .text.SERCOM5_USART_TransmitterDisable
                0x00000000       0x18 build/default/debug/_ext/504274921/plib_sercom5_usart.o
 .text.SERCOM5_USART_TransmitterIsReady
                0x00000000       0x10 build/default/debug/_ext/504274921/plib_sercom5_usart.o
 .text.SERCOM5_USART_TransmitComplete
                0x00000000       0x10 build/default/debug/_ext/504274921/plib_sercom5_usart.o
 .text.SERCOM5_USART_WriteByte
                0x00000000       0x18 build/default/debug/_ext/504274921/plib_sercom5_usart.o
 .text.SERCOM5_USART_ReceiverEnable
                0x00000000       0x18 build/default/debug/_ext/504274921/plib_sercom5_usart.o
 .text.SERCOM5_USART_ReceiverDisable
                0x00000000       0x18 build/default/debug/_ext/504274921/plib_sercom5_usart.o
 .text.SERCOM5_USART_ReadByte
                0x00000000        0xc build/default/debug/_ext/504274921/plib_sercom5_usart.o
 .text          0x00000000        0x0 build/default/debug/_ext/163028504/xc32_monitor.o
 .data          0x00000000        0x0 build/default/debug/_ext/163028504/xc32_monitor.o
 .bss           0x00000000        0x0 build/default/debug/_ext/163028504/xc32_monitor.o
 .text._mon_getc
                0x00000000        0x4 build/default/debug/_ext/163028504/xc32_monitor.o
 .text._mon_putc
                0x00000000        0x2 build/default/debug/_ext/163028504/xc32_monitor.o
 .debug_info    0x00000000      0x2a8 build/default/debug/_ext/163028504/xc32_monitor.o
 .debug_abbrev  0x00000000       0x75 build/default/debug/_ext/163028504/xc32_monitor.o
 .debug_loc     0x00000000       0x21 build/default/debug/_ext/163028504/xc32_monitor.o
 .debug_aranges
                0x00000000       0x28 build/default/debug/_ext/163028504/xc32_monitor.o
 .debug_ranges  0x00000000       0x18 build/default/debug/_ext/163028504/xc32_monitor.o
 .debug_line    0x00000000       0x6a build/default/debug/_ext/163028504/xc32_monitor.o
 .debug_str     0x00000000        0x0 build/default/debug/_ext/163028504/xc32_monitor.o
 .comment       0x00000000       0x3d build/default/debug/_ext/163028504/xc32_monitor.o
 .debug_frame   0x00000000       0x30 build/default/debug/_ext/163028504/xc32_monitor.o
 .ARM.attributes
                0x00000000       0x39 build/default/debug/_ext/163028504/xc32_monitor.o
 .text          0x00000000        0x0 build/default/debug/_ext/1171490990/initialization.o
 .data          0x00000000        0x0 build/default/debug/_ext/1171490990/initialization.o
 .bss           0x00000000        0x0 build/default/debug/_ext/1171490990/initialization.o
 .text          0x00000000        0x0 build/default/debug/_ext/1171490990/interrupts.o
 .data          0x00000000        0x0 build/default/debug/_ext/1171490990/interrupts.o
 .bss           0x00000000        0x0 build/default/debug/_ext/1171490990/interrupts.o
 .text          0x00000000        0x0 build/default/debug/_ext/1171490990/exceptions.o
 .data          0x00000000        0x0 build/default/debug/_ext/1171490990/exceptions.o
 .bss           0x00000000        0x0 build/default/debug/_ext/1171490990/exceptions.o
 .text          0x00000000        0x0 build/default/debug/_ext/1171490990/startup_xc32.o
 .data          0x00000000        0x0 build/default/debug/_ext/1171490990/startup_xc32.o
 .bss           0x00000000        0x0 build/default/debug/_ext/1171490990/startup_xc32.o
 .text          0x00000000        0x0 build/default/debug/_ext/1171490990/libc_syscalls.o
 .data          0x00000000        0x0 build/default/debug/_ext/1171490990/libc_syscalls.o
 .bss           0x00000000        0x0 build/default/debug/_ext/1171490990/libc_syscalls.o
 .text._exit    0x00000000        0x4 build/default/debug/_ext/1171490990/libc_syscalls.o
 .debug_info    0x00000000      0xec1 build/default/debug/_ext/1171490990/libc_syscalls.o
 .debug_abbrev  0x00000000      0x1a8 build/default/debug/_ext/1171490990/libc_syscalls.o
 .debug_aranges
                0x00000000       0x20 build/default/debug/_ext/1171490990/libc_syscalls.o
 .debug_ranges  0x00000000       0x10 build/default/debug/_ext/1171490990/libc_syscalls.o
 .debug_line    0x00000000      0x1d0 build/default/debug/_ext/1171490990/libc_syscalls.o
 .debug_str     0x00000000        0xe build/default/debug/_ext/1171490990/libc_syscalls.o
 .comment       0x00000000       0x3d build/default/debug/_ext/1171490990/libc_syscalls.o
 .debug_frame   0x00000000       0x20 build/default/debug/_ext/1171490990/libc_syscalls.o
 .ARM.attributes
                0x00000000       0x39 build/default/debug/_ext/1171490990/libc_syscalls.o
 .text          0x00000000        0x0 build/default/debug/_ext/1360937237/main.o
 .data          0x00000000        0x0 build/default/debug/_ext/1360937237/main.o
 .bss           0x00000000        0x0 build/default/debug/_ext/1360937237/main.o
 .data.newline  0x00000000        0x3 build/default/debug/_ext/1360937237/main.o
 .text          0x00000000        0x0 c:/program files/microchip/xc32/v2.41/bin/bin/../../lib/gcc/pic32c/6.2.1/../../../../pic32c/lib/v7e-m/fpv4-sp/hard\libpic32c.a(data_init.o)
 .data          0x00000000        0x0 c:/program files/microchip/xc32/v2.41/bin/bin/../../lib/gcc/pic32c/6.2.1/../../../../pic32c/lib/v7e-m/fpv4-sp/hard\libpic32c.a(data_init.o)
 .bss           0x00000000        0x0 c:/program files/microchip/xc32/v2.41/bin/bin/../../lib/gcc/pic32c/6.2.1/../../../../pic32c/lib/v7e-m/fpv4-sp/hard\libpic32c.a(data_init.o)
 .text          0x00000000       0x30 c:/program files/microchip/xc32/v2.41/bin/bin/../../lib/gcc/pic32c/6.2.1/v7e-m/fpv4-sp/hard\libgcc.a(_aeabi_uldivmod.o)
 .data          0x00000000        0x0 c:/program files/microchip/xc32/v2.41/bin/bin/../../lib/gcc/pic32c/6.2.1/v7e-m/fpv4-sp/hard\libgcc.a(_aeabi_uldivmod.o)
 .bss           0x00000000        0x0 c:/program files/microchip/xc32/v2.41/bin/bin/../../lib/gcc/pic32c/6.2.1/v7e-m/fpv4-sp/hard\libgcc.a(_aeabi_uldivmod.o)
 .debug_line    0x00000000       0x9c c:/program files/microchip/xc32/v2.41/bin/bin/../../lib/gcc/pic32c/6.2.1/v7e-m/fpv4-sp/hard\libgcc.a(_aeabi_uldivmod.o)
 .debug_info    0x00000000       0xfd c:/program files/microchip/xc32/v2.41/bin/bin/../../lib/gcc/pic32c/6.2.1/v7e-m/fpv4-sp/hard\libgcc.a(_aeabi_uldivmod.o)
 .debug_abbrev  0x00000000       0x14 c:/program files/microchip/xc32/v2.41/bin/bin/../../lib/gcc/pic32c/6.2.1/v7e-m/fpv4-sp/hard\libgcc.a(_aeabi_uldivmod.o)
 .debug_aranges
                0x00000000       0x20 c:/program files/microchip/xc32/v2.41/bin/bin/../../lib/gcc/pic32c/6.2.1/v7e-m/fpv4-sp/hard\libgcc.a(_aeabi_uldivmod.o)
 .debug_frame   0x00000000       0x2c c:/program files/microchip/xc32/v2.41/bin/bin/../../lib/gcc/pic32c/6.2.1/v7e-m/fpv4-sp/hard\libgcc.a(_aeabi_uldivmod.o)
 .ARM.attributes
                0x00000000       0x22 c:/program files/microchip/xc32/v2.41/bin/bin/../../lib/gcc/pic32c/6.2.1/v7e-m/fpv4-sp/hard\libgcc.a(_aeabi_uldivmod.o)
 .text          0x00000000      0x2b8 c:/program files/microchip/xc32/v2.41/bin/bin/../../lib/gcc/pic32c/6.2.1/v7e-m/fpv4-sp/hard\libgcc.a(_udivmoddi4.o)
 .data          0x00000000        0x0 c:/program files/microchip/xc32/v2.41/bin/bin/../../lib/gcc/pic32c/6.2.1/v7e-m/fpv4-sp/hard\libgcc.a(_udivmoddi4.o)
 .bss           0x00000000        0x0 c:/program files/microchip/xc32/v2.41/bin/bin/../../lib/gcc/pic32c/6.2.1/v7e-m/fpv4-sp/hard\libgcc.a(_udivmoddi4.o)
 .ARM.extab     0x00000000        0x0 c:/program files/microchip/xc32/v2.41/bin/bin/../../lib/gcc/pic32c/6.2.1/v7e-m/fpv4-sp/hard\libgcc.a(_udivmoddi4.o)
 .ARM.exidx     0x00000000        0x8 c:/program files/microchip/xc32/v2.41/bin/bin/../../lib/gcc/pic32c/6.2.1/v7e-m/fpv4-sp/hard\libgcc.a(_udivmoddi4.o)
 .debug_info    0x00000000     0x1696 c:/program files/microchip/xc32/v2.41/bin/bin/../../lib/gcc/pic32c/6.2.1/v7e-m/fpv4-sp/hard\libgcc.a(_udivmoddi4.o)
 .debug_abbrev  0x00000000      0x163 c:/program files/microchip/xc32/v2.41/bin/bin/../../lib/gcc/pic32c/6.2.1/v7e-m/fpv4-sp/hard\libgcc.a(_udivmoddi4.o)
 .debug_loc     0x00000000      0xc35 c:/program files/microchip/xc32/v2.41/bin/bin/../../lib/gcc/pic32c/6.2.1/v7e-m/fpv4-sp/hard\libgcc.a(_udivmoddi4.o)
 .debug_aranges
                0x00000000       0x20 c:/program files/microchip/xc32/v2.41/bin/bin/../../lib/gcc/pic32c/6.2.1/v7e-m/fpv4-sp/hard\libgcc.a(_udivmoddi4.o)
 .debug_ranges  0x00000000       0xa8 c:/program files/microchip/xc32/v2.41/bin/bin/../../lib/gcc/pic32c/6.2.1/v7e-m/fpv4-sp/hard\libgcc.a(_udivmoddi4.o)
 .debug_line    0x00000000      0x32c c:/program files/microchip/xc32/v2.41/bin/bin/../../lib/gcc/pic32c/6.2.1/v7e-m/fpv4-sp/hard\libgcc.a(_udivmoddi4.o)
 .debug_str     0x00000000        0x0 c:/program files/microchip/xc32/v2.41/bin/bin/../../lib/gcc/pic32c/6.2.1/v7e-m/fpv4-sp/hard\libgcc.a(_udivmoddi4.o)
 .comment       0x00000000       0x3d c:/program files/microchip/xc32/v2.41/bin/bin/../../lib/gcc/pic32c/6.2.1/v7e-m/fpv4-sp/hard\libgcc.a(_udivmoddi4.o)
 .debug_frame   0x00000000       0x38 c:/program files/microchip/xc32/v2.41/bin/bin/../../lib/gcc/pic32c/6.2.1/v7e-m/fpv4-sp/hard\libgcc.a(_udivmoddi4.o)
 .ARM.attributes
                0x00000000       0x34 c:/program files/microchip/xc32/v2.41/bin/bin/../../lib/gcc/pic32c/6.2.1/v7e-m/fpv4-sp/hard\libgcc.a(_udivmoddi4.o)
 .text          0x00000000        0x4 c:/program files/microchip/xc32/v2.41/bin/bin/../../lib/gcc/pic32c/6.2.1/v7e-m/fpv4-sp/hard\libgcc.a(_dvmd_tls.o)
 .data          0x00000000        0x0 c:/program files/microchip/xc32/v2.41/bin/bin/../../lib/gcc/pic32c/6.2.1/v7e-m/fpv4-sp/hard\libgcc.a(_dvmd_tls.o)
 .bss           0x00000000        0x0 c:/program files/microchip/xc32/v2.41/bin/bin/../../lib/gcc/pic32c/6.2.1/v7e-m/fpv4-sp/hard\libgcc.a(_dvmd_tls.o)
 .debug_line    0x00000000       0x9c c:/program files/microchip/xc32/v2.41/bin/bin/../../lib/gcc/pic32c/6.2.1/v7e-m/fpv4-sp/hard\libgcc.a(_dvmd_tls.o)
 .debug_info    0x00000000      0x101 c:/program files/microchip/xc32/v2.41/bin/bin/../../lib/gcc/pic32c/6.2.1/v7e-m/fpv4-sp/hard\libgcc.a(_dvmd_tls.o)
 .debug_abbrev  0x00000000       0x14 c:/program files/microchip/xc32/v2.41/bin/bin/../../lib/gcc/pic32c/6.2.1/v7e-m/fpv4-sp/hard\libgcc.a(_dvmd_tls.o)
 .debug_aranges
                0x00000000       0x20 c:/program files/microchip/xc32/v2.41/bin/bin/../../lib/gcc/pic32c/6.2.1/v7e-m/fpv4-sp/hard\libgcc.a(_dvmd_tls.o)
 .ARM.attributes
                0x00000000       0x22 c:/program files/microchip/xc32/v2.41/bin/bin/../../lib/gcc/pic32c/6.2.1/v7e-m/fpv4-sp/hard\libgcc.a(_dvmd_tls.o)
 .text          0x00000000        0x0 c:/program files/microchip/xc32/v2.41/bin/bin/../../lib/gcc/pic32c/6.2.1/../../../../pic32c/lib/v7e-m/fpv4-sp/hard\libg_nano.a(lib_a-init.o)
 .data          0x00000000        0x0 c:/program files/microchip/xc32/v2.41/bin/bin/../../lib/gcc/pic32c/6.2.1/../../../../pic32c/lib/v7e-m/fpv4-sp/hard\libg_nano.a(lib_a-init.o)
 .bss           0x00000000        0x0 c:/program files/microchip/xc32/v2.41/bin/bin/../../lib/gcc/pic32c/6.2.1/../../../../pic32c/lib/v7e-m/fpv4-sp/hard\libg_nano.a(lib_a-init.o)
 .text          0x00000000        0x0 c:/program files/microchip/xc32/v2.41/bin/bin/../../lib/gcc/pic32c/6.2.1/../../../../pic32c/lib/v7e-m/fpv4-sp/hard\libg_nano.a(lib_a-memcpy-stub.o)
 .data          0x00000000        0x0 c:/program files/microchip/xc32/v2.41/bin/bin/../../lib/gcc/pic32c/6.2.1/../../../../pic32c/lib/v7e-m/fpv4-sp/hard\libg_nano.a(lib_a-memcpy-stub.o)
 .bss           0x00000000        0x0 c:/program files/microchip/xc32/v2.41/bin/bin/../../lib/gcc/pic32c/6.2.1/../../../../pic32c/lib/v7e-m/fpv4-sp/hard\libg_nano.a(lib_a-memcpy-stub.o)
 .text.memcpy   0x00000000       0x16 c:/program files/microchip/xc32/v2.41/bin/bin/../../lib/gcc/pic32c/6.2.1/../../../../pic32c/lib/v7e-m/fpv4-sp/hard\libg_nano.a(lib_a-memcpy-stub.o)
 .debug_info    0x00000000      0xe68 c:/program files/microchip/xc32/v2.41/bin/bin/../../lib/gcc/pic32c/6.2.1/../../../../pic32c/lib/v7e-m/fpv4-sp/hard\libg_nano.a(lib_a-memcpy-stub.o)
 .debug_abbrev  0x00000000      0x17c c:/program files/microchip/xc32/v2.41/bin/bin/../../lib/gcc/pic32c/6.2.1/../../../../pic32c/lib/v7e-m/fpv4-sp/hard\libg_nano.a(lib_a-memcpy-stub.o)
 .debug_loc     0x00000000       0xb2 c:/program files/microchip/xc32/v2.41/bin/bin/../../lib/gcc/pic32c/6.2.1/../../../../pic32c/lib/v7e-m/fpv4-sp/hard\libg_nano.a(lib_a-memcpy-stub.o)
 .debug_aranges
                0x00000000       0x20 c:/program files/microchip/xc32/v2.41/bin/bin/../../lib/gcc/pic32c/6.2.1/../../../../pic32c/lib/v7e-m/fpv4-sp/hard\libg_nano.a(lib_a-memcpy-stub.o)
 .debug_ranges  0x00000000       0x10 c:/program files/microchip/xc32/v2.41/bin/bin/../../lib/gcc/pic32c/6.2.1/../../../../pic32c/lib/v7e-m/fpv4-sp/hard\libg_nano.a(lib_a-memcpy-stub.o)
 .debug_line    0x00000000      0x218 c:/program files/microchip/xc32/v2.41/bin/bin/../../lib/gcc/pic32c/6.2.1/../../../../pic32c/lib/v7e-m/fpv4-sp/hard\libg_nano.a(lib_a-memcpy-stub.o)
 .debug_str     0x00000000        0x9 c:/program files/microchip/xc32/v2.41/bin/bin/../../lib/gcc/pic32c/6.2.1/../../../../pic32c/lib/v7e-m/fpv4-sp/hard\libg_nano.a(lib_a-memcpy-stub.o)
 .comment       0x00000000       0x3d c:/program files/microchip/xc32/v2.41/bin/bin/../../lib/gcc/pic32c/6.2.1/../../../../pic32c/lib/v7e-m/fpv4-sp/hard\libg_nano.a(lib_a-memcpy-stub.o)
 .debug_frame   0x00000000       0x28 c:/program files/microchip/xc32/v2.41/bin/bin/../../lib/gcc/pic32c/6.2.1/../../../../pic32c/lib/v7e-m/fpv4-sp/hard\libg_nano.a(lib_a-memcpy-stub.o)
 .ARM.attributes
                0x00000000       0x34 c:/program files/microchip/xc32/v2.41/bin/bin/../../lib/gcc/pic32c/6.2.1/../../../../pic32c/lib/v7e-m/fpv4-sp/hard\libg_nano.a(lib_a-memcpy-stub.o)
 .text          0x00000000        0x0 c:/program files/microchip/xc32/v2.41/bin/bin/../../lib/gcc/pic32c/6.2.1/v7e-m/fpv4-sp/hard/crtend.o
 .data          0x00000000        0x0 c:/program files/microchip/xc32/v2.41/bin/bin/../../lib/gcc/pic32c/6.2.1/v7e-m/fpv4-sp/hard/crtend.o
 .bss           0x00000000        0x0 c:/program files/microchip/xc32/v2.41/bin/bin/../../lib/gcc/pic32c/6.2.1/v7e-m/fpv4-sp/hard/crtend.o
 .eh_frame      0x00000000        0x4 c:/program files/microchip/xc32/v2.41/bin/bin/../../lib/gcc/pic32c/6.2.1/v7e-m/fpv4-sp/hard/crtend.o
 .comment       0x00000000       0x3d c:/program files/microchip/xc32/v2.41/bin/bin/../../lib/gcc/pic32c/6.2.1/v7e-m/fpv4-sp/hard/crtend.o
 .ARM.attributes
                0x00000000       0x34 c:/program files/microchip/xc32/v2.41/bin/bin/../../lib/gcc/pic32c/6.2.1/v7e-m/fpv4-sp/hard/crtend.o
 .text          0x00000000        0x0 c:/program files/microchip/xc32/v2.41/bin/bin/../../lib/gcc/pic32c/6.2.1/v7e-m/fpv4-sp/hard/crtn.o
 .data          0x00000000        0x0 c:/program files/microchip/xc32/v2.41/bin/bin/../../lib/gcc/pic32c/6.2.1/v7e-m/fpv4-sp/hard/crtn.o
 .bss           0x00000000        0x0 c:/program files/microchip/xc32/v2.41/bin/bin/../../lib/gcc/pic32c/6.2.1/v7e-m/fpv4-sp/hard/crtn.o

Memory Configuration

Name             Origin             Length             Attributes
rom              0x00000000         0x00100000         xrl
ram              0x20000000         0x00040000         xw !r
config_00804000  0x00804000         0x00000004
config_00804008  0x00804008         0x00000004
config_00804004  0x00804004         0x00000004
*default*        0x00000000         0xffffffff

Linker script and memory map

LOAD c:/program files/microchip/xc32/v2.41/bin/bin/../../lib/gcc/pic32c/6.2.1/v7e-m/fpv4-sp/hard/crti.o
LOAD c:/program files/microchip/xc32/v2.41/bin/bin/../../lib/gcc/pic32c/6.2.1/v7e-m/fpv4-sp/hard/crtbegin.o
LOAD build/default/debug/_ext/1984496892/plib_clock.o
LOAD build/default/debug/_ext/1865131932/plib_cmcc.o
LOAD build/default/debug/_ext/1986646378/plib_evsys.o
LOAD build/default/debug/_ext/1865468468/plib_nvic.o
LOAD build/default/debug/_ext/1593096446/plib_nvmctrl.o
LOAD build/default/debug/_ext/1865521619/plib_port.o
LOAD build/default/debug/_ext/504274921/plib_sercom0_usart.o
LOAD build/default/debug/_ext/504274921/plib_sercom5_usart.o
LOAD build/default/debug/_ext/163028504/xc32_monitor.o
LOAD build/default/debug/_ext/1171490990/initialization.o
LOAD build/default/debug/_ext/1171490990/interrupts.o
LOAD build/default/debug/_ext/1171490990/exceptions.o
LOAD build/default/debug/_ext/1171490990/startup_xc32.o
LOAD build/default/debug/_ext/1171490990/libc_syscalls.o
LOAD build/default/debug/_ext/1360937237/main.o
                0x00000001                __MPLAB_BUILD = 0x1
                0x00100000                __rom_end = (ORIGIN (rom) + LENGTH (rom))
                0x20040000                __ram_end = (ORIGIN (ram) + LENGTH (ram))

.config_00804000
                0x00804000        0x4
 *(.config_00804000)
 .config_00804000
                0x00804000        0x4 build/default/debug/_ext/1171490990/initialization.o

.config_00804008
                0x00804008        0x4
 *(.config_00804008)
 .config_00804008
                0x00804008        0x4 build/default/debug/_ext/1171490990/initialization.o

.config_00804004
                0x00804004        0x4
 *(.config_00804004)
 .config_00804004
                0x00804004        0x4 build/default/debug/_ext/1171490990/initialization.o

.vectors        0x00000000      0x264
                0x00000000                . = ALIGN (0x4)
                0x00000000                _sfixed = .
 *(.vectors .vectors.* .vectors_default .vectors_default.*)
 .vectors       0x00000000      0x264 build/default/debug/_ext/1171490990/interrupts.o
                0x00000000                exception_table
 *(.isr_vector)
 *(.reset*)
 *(.after_vectors)

.text           0x00000264       0x20
                0x00000264                . = ALIGN (0x4)
 *(.glue_7t)
 .glue_7t       0x00000264        0x0 linker stubs
 *(.glue_7)
 .glue_7        0x00000264        0x0 linker stubs
 *(.gnu.linkonce.r.*)
 *(.ARM.extab* .gnu.linkonce.armextab.*)
                0x00000264                . = ALIGN (0x4)
 *(.init)
 .init          0x00000264        0x4 c:/program files/microchip/xc32/v2.41/bin/bin/../../lib/gcc/pic32c/6.2.1/v7e-m/fpv4-sp/hard/crti.o
                0x00000264                _init
 .init          0x00000268        0x8 c:/program files/microchip/xc32/v2.41/bin/bin/../../lib/gcc/pic32c/6.2.1/v7e-m/fpv4-sp/hard/crtn.o
                0x00000270                . = ALIGN (0x4)
                0x00000270                __preinit_array_start = .
 *(.preinit_array)
                0x00000270                __preinit_array_end = .
                0x00000270                . = ALIGN (0x4)
                0x00000270                __init_array_start = .
 *(SORT(.init_array.*))
 *(.init_array)
 .init_array    0x00000270        0x4 c:/program files/microchip/xc32/v2.41/bin/bin/../../lib/gcc/pic32c/6.2.1/v7e-m/fpv4-sp/hard/crtbegin.o
                0x00000274                __init_array_end = .
                0x00000274                . = ALIGN (0x4)
 *crtbegin.o(.ctors)
 *(EXCLUDE_FILE(*crtend.o) .ctors)
 *(SORT(.ctors.*))
 *crtend.o(.ctors)
                0x00000274                . = ALIGN (0x4)
 *(.fini)
 .fini          0x00000274        0x4 c:/program files/microchip/xc32/v2.41/bin/bin/../../lib/gcc/pic32c/6.2.1/v7e-m/fpv4-sp/hard/crti.o
                0x00000274                _fini
 .fini          0x00000278        0x8 c:/program files/microchip/xc32/v2.41/bin/bin/../../lib/gcc/pic32c/6.2.1/v7e-m/fpv4-sp/hard/crtn.o
                0x00000280                . = ALIGN (0x4)
                0x00000280                __fini_array_start = .
 *(.fini_array)
 .fini_array    0x00000280        0x4 c:/program files/microchip/xc32/v2.41/bin/bin/../../lib/gcc/pic32c/6.2.1/v7e-m/fpv4-sp/hard/crtbegin.o
 *(SORT(.fini_array.*))
                0x00000284                __fini_array_end = .
 *crtbegin.o(.dtors)
 *(EXCLUDE_FILE(*crtend.o) .dtors)
 *(SORT(.dtors.*))
 *crtend.o(.dtors)
                0x00000284                . = ALIGN (0x4)
                0x00000284                _efixed = .
                [!provide]                PROVIDE (__exidx_start, .)

.ARM.exidx
 *(.ARM.exidx* .gnu.linkonce.armexidx.*)
                [!provide]                PROVIDE (__exidx_end, .)
                0x00000284                . = ALIGN (0x4)
                0x00000284                _etext = .

.bss            0x20000000        0x0
                0x20000000                . = ALIGN (0x4)
                0x20000000                __bss_start__ = .
                0x20000000                _sbss = .
                0x20000000                _szero = .
 *(COMMON)
                0x20000000                . = ALIGN (0x4)
                0x20000000                __bss_end__ = .
                0x20000000                _ebss = .
                0x20000000                _ezero = .
                0x20000000                . = ALIGN (0x4)
                0x20000000                _end = .
                0x2003ffff                _ram_end_ = ((ORIGIN (ram) + LENGTH (ram)) - 0x1)
                0x00000001                __ICD2RAM = 0x1
                0x00000001                __MPLAB_DEBUG = 0x1
                0x00000001                __DEBUG = 0x1
                0x00000200                _min_heap_size = 0x200
START GROUP
LOAD c:/program files/microchip/xc32/v2.41/bin/bin/../../lib/gcc/pic32c/6.2.1/../../../../pic32c/lib/v7e-m/fpv4-sp/hard\libpic32c.a
LOAD c:/program files/microchip/xc32/v2.41/bin/bin/../../lib/gcc/pic32c/6.2.1/v7e-m/fpv4-sp/hard\libgcc.a
LOAD c:/program files/microchip/xc32/v2.41/bin/bin/../../lib/gcc/pic32c/6.2.1/../../../../pic32c/lib/v7e-m/fpv4-sp/hard\libg_nano.a
LOAD c:/program files/microchip/xc32/v2.41/bin/bin/../../lib/gcc/pic32c/6.2.1/../../../../pic32c/lib/v7e-m/fpv4-sp/hard\libm_nano.a
LOAD c:/program files/microchip/xc32/v2.41/bin/bin/../../lib/gcc/pic32c/6.2.1/../../../../pic32c/lib/v7e-m/fpv4-sp/hard\libc_nano.a
END GROUP
LOAD c:/program files/microchip/xc32/v2.41/bin/bin/../../lib/gcc/pic32c/6.2.1/v7e-m/fpv4-sp/hard/crtend.o
LOAD c:/program files/microchip/xc32/v2.41/bin/bin/../../lib/gcc/pic32c/6.2.1/v7e-m/fpv4-sp/hard/crtn.o
OUTPUT(dist/default/debug/UART_Terminal_rx_tx_v1.X.debug.elf elf32-littlearm)
LOAD stack
LOAD data_init

.ARM.attributes
                0x00000000       0x32
 .ARM.attributes
                0x00000000       0x22 c:/program files/microchip/xc32/v2.41/bin/bin/../../lib/gcc/pic32c/6.2.1/v7e-m/fpv4-sp/hard/crti.o
 .ARM.attributes
                0x00000022       0x34 c:/program files/microchip/xc32/v2.41/bin/bin/../../lib/gcc/pic32c/6.2.1/v7e-m/fpv4-sp/hard/crtbegin.o
 .ARM.attributes
                0x00000056       0x39 build/default/debug/_ext/1984496892/plib_clock.o
 .ARM.attributes
                0x0000008f       0x39 build/default/debug/_ext/1986646378/plib_evsys.o
 .ARM.attributes
                0x000000c8       0x39 build/default/debug/_ext/1865468468/plib_nvic.o
 .ARM.attributes
                0x00000101       0x39 build/default/debug/_ext/1593096446/plib_nvmctrl.o
 .ARM.attributes
                0x0000013a       0x39 build/default/debug/_ext/1865521619/plib_port.o
 .ARM.attributes
                0x00000173       0x39 build/default/debug/_ext/504274921/plib_sercom0_usart.o
 .ARM.attributes
                0x000001ac       0x39 build/default/debug/_ext/504274921/plib_sercom5_usart.o
 .ARM.attributes
                0x000001e5       0x39 build/default/debug/_ext/1171490990/initialization.o
 .ARM.attributes
                0x0000021e       0x39 build/default/debug/_ext/1171490990/interrupts.o
 .ARM.attributes
                0x00000257       0x39 build/default/debug/_ext/1171490990/exceptions.o
 .ARM.attributes
                0x00000290       0x39 build/default/debug/_ext/1171490990/startup_xc32.o
 .ARM.attributes
                0x000002c9       0x39 build/default/debug/_ext/1360937237/main.o
 .ARM.attributes
                0x00000302       0x34 c:/program files/microchip/xc32/v2.41/bin/bin/../../lib/gcc/pic32c/6.2.1/../../../../pic32c/lib/v7e-m/fpv4-sp/hard\libpic32c.a(data_init.o)
 .ARM.attributes
                0x00000336       0x34 c:/program files/microchip/xc32/v2.41/bin/bin/../../lib/gcc/pic32c/6.2.1/../../../../pic32c/lib/v7e-m/fpv4-sp/hard\libg_nano.a(lib_a-init.o)
 .ARM.attributes
                0x0000036a       0x22 c:/program files/microchip/xc32/v2.41/bin/bin/../../lib/gcc/pic32c/6.2.1/v7e-m/fpv4-sp/hard/crtn.o

.comment        0x00000000       0x3c
 .comment       0x00000000       0x3c c:/program files/microchip/xc32/v2.41/bin/bin/../../lib/gcc/pic32c/6.2.1/v7e-m/fpv4-sp/hard/crtbegin.o
                                 0x3d (size before relaxing)
 .comment       0x0000003c       0x3d build/default/debug/_ext/1984496892/plib_clock.o
 .comment       0x0000003c       0x3d build/default/debug/_ext/1986646378/plib_evsys.o
 .comment       0x0000003c       0x3d build/default/debug/_ext/1865468468/plib_nvic.o
 .comment       0x0000003c       0x3d build/default/debug/_ext/1593096446/plib_nvmctrl.o
 .comment       0x0000003c       0x3d build/default/debug/_ext/1865521619/plib_port.o
 .comment       0x0000003c       0x3d build/default/debug/_ext/504274921/plib_sercom0_usart.o
 .comment       0x0000003c       0x3d build/default/debug/_ext/504274921/plib_sercom5_usart.o
 .comment       0x0000003c       0x3d build/default/debug/_ext/1171490990/initialization.o
 .comment       0x0000003c       0x3d build/default/debug/_ext/1171490990/interrupts.o
 .comment       0x0000003c       0x3d build/default/debug/_ext/1171490990/exceptions.o
 .comment       0x0000003c       0x3d build/default/debug/_ext/1171490990/startup_xc32.o
 .comment       0x0000003c       0x3d build/default/debug/_ext/1360937237/main.o
 .comment       0x0000003c       0x3d c:/program files/microchip/xc32/v2.41/bin/bin/../../lib/gcc/pic32c/6.2.1/../../../../pic32c/lib/v7e-m/fpv4-sp/hard\libpic32c.a(data_init.o)
 .comment       0x0000003c       0x3d c:/program files/microchip/xc32/v2.41/bin/bin/../../lib/gcc/pic32c/6.2.1/../../../../pic32c/lib/v7e-m/fpv4-sp/hard\libg_nano.a(lib_a-init.o)

.debug_info     0x00000000     0xa963
 .debug_info    0x00000000      0xb77 build/default/debug/_ext/1984496892/plib_clock.o
 .debug_info    0x00000b77      0x366 build/default/debug/_ext/1986646378/plib_evsys.o
 .debug_info    0x00000edd      0x7fa build/default/debug/_ext/1865468468/plib_nvic.o
 .debug_info    0x000016d7     0x173d build/default/debug/_ext/1593096446/plib_nvmctrl.o
 .debug_info    0x00002e14     0x10d1 build/default/debug/_ext/1865521619/plib_port.o
 .debug_info    0x00003ee5     0x1488 build/default/debug/_ext/504274921/plib_sercom0_usart.o
 .debug_info    0x0000536d     0x1488 build/default/debug/_ext/504274921/plib_sercom5_usart.o
 .debug_info    0x000067f5      0x413 build/default/debug/_ext/1171490990/initialization.o
 .debug_info    0x00006c08     0x1696 build/default/debug/_ext/1171490990/interrupts.o
 .debug_info    0x0000829e      0x423 build/default/debug/_ext/1171490990/exceptions.o
 .debug_info    0x000086c1      0x8ef build/default/debug/_ext/1171490990/startup_xc32.o
 .debug_info    0x00008fb0     0x12f2 build/default/debug/_ext/1360937237/main.o
 .debug_info    0x0000a2a2      0x2a2 c:/program files/microchip/xc32/v2.41/bin/bin/../../lib/gcc/pic32c/6.2.1/../../../../pic32c/lib/v7e-m/fpv4-sp/hard\libpic32c.a(data_init.o)
 .debug_info    0x0000a544      0x41f c:/program files/microchip/xc32/v2.41/bin/bin/../../lib/gcc/pic32c/6.2.1/../../../../pic32c/lib/v7e-m/fpv4-sp/hard\libg_nano.a(lib_a-init.o)

.debug_abbrev   0x00000000     0x1305
 .debug_abbrev  0x00000000      0x114 build/default/debug/_ext/1984496892/plib_clock.o
 .debug_abbrev  0x00000114       0x5e build/default/debug/_ext/1986646378/plib_evsys.o
 .debug_abbrev  0x00000172      0x183 build/default/debug/_ext/1865468468/plib_nvic.o
 .debug_abbrev  0x000002f5      0x2ba build/default/debug/_ext/1593096446/plib_nvmctrl.o
 .debug_abbrev  0x000005af      0x1bf build/default/debug/_ext/1865521619/plib_port.o
 .debug_abbrev  0x0000076e      0x28a build/default/debug/_ext/504274921/plib_sercom0_usart.o
 .debug_abbrev  0x000009f8      0x28a build/default/debug/_ext/504274921/plib_sercom5_usart.o
 .debug_abbrev  0x00000c82       0xa5 build/default/debug/_ext/1171490990/initialization.o
 .debug_abbrev  0x00000d27       0xb2 build/default/debug/_ext/1171490990/interrupts.o
 .debug_abbrev  0x00000dd9       0x61 build/default/debug/_ext/1171490990/exceptions.o
 .debug_abbrev  0x00000e3a      0x1cd build/default/debug/_ext/1171490990/startup_xc32.o
 .debug_abbrev  0x00001007      0x231 build/default/debug/_ext/1360937237/main.o
 .debug_abbrev  0x00001238       0x2a c:/program files/microchip/xc32/v2.41/bin/bin/../../lib/gcc/pic32c/6.2.1/../../../../pic32c/lib/v7e-m/fpv4-sp/hard\libpic32c.a(data_init.o)
 .debug_abbrev  0x00001262       0xa3 c:/program files/microchip/xc32/v2.41/bin/bin/../../lib/gcc/pic32c/6.2.1/../../../../pic32c/lib/v7e-m/fpv4-sp/hard\libg_nano.a(lib_a-init.o)

.debug_aranges  0x00000000      0x3e0
 .debug_aranges
                0x00000000       0x20 build/default/debug/_ext/1984496892/plib_clock.o
 .debug_aranges
                0x00000020       0x20 build/default/debug/_ext/1986646378/plib_evsys.o
 .debug_aranges
                0x00000040       0x38 build/default/debug/_ext/1865468468/plib_nvic.o
 .debug_aranges
                0x00000078       0xb0 build/default/debug/_ext/1593096446/plib_nvmctrl.o
 .debug_aranges
                0x00000128       0x70 build/default/debug/_ext/1865521619/plib_port.o
 .debug_aranges
                0x00000198       0x98 build/default/debug/_ext/504274921/plib_sercom0_usart.o
 .debug_aranges
                0x00000230       0x98 build/default/debug/_ext/504274921/plib_sercom5_usart.o
 .debug_aranges
                0x000002c8       0x20 build/default/debug/_ext/1171490990/initialization.o
 .debug_aranges
                0x000002e8       0x20 build/default/debug/_ext/1171490990/interrupts.o
 .debug_aranges
                0x00000308       0x48 build/default/debug/_ext/1171490990/exceptions.o
 .debug_aranges
                0x00000350       0x28 build/default/debug/_ext/1171490990/startup_xc32.o
 .debug_aranges
                0x00000378       0x28 build/default/debug/_ext/1360937237/main.o
 .debug_aranges
                0x000003a0       0x20 c:/program files/microchip/xc32/v2.41/bin/bin/../../lib/gcc/pic32c/6.2.1/../../../../pic32c/lib/v7e-m/fpv4-sp/hard\libpic32c.a(data_init.o)
 .debug_aranges
                0x000003c0       0x20 c:/program files/microchip/xc32/v2.41/bin/bin/../../lib/gcc/pic32c/6.2.1/../../../../pic32c/lib/v7e-m/fpv4-sp/hard\libg_nano.a(lib_a-init.o)

.debug_ranges   0x00000000      0x300
 .debug_ranges  0x00000000       0x10 build/default/debug/_ext/1984496892/plib_clock.o
 .debug_ranges  0x00000010       0x10 build/default/debug/_ext/1986646378/plib_evsys.o
 .debug_ranges  0x00000020       0x28 build/default/debug/_ext/1865468468/plib_nvic.o
 .debug_ranges  0x00000048       0xa0 build/default/debug/_ext/1593096446/plib_nvmctrl.o
 .debug_ranges  0x000000e8       0x60 build/default/debug/_ext/1865521619/plib_port.o
 .debug_ranges  0x00000148       0x88 build/default/debug/_ext/504274921/plib_sercom0_usart.o
 .debug_ranges  0x000001d0       0x88 build/default/debug/_ext/504274921/plib_sercom5_usart.o
 .debug_ranges  0x00000258       0x10 build/default/debug/_ext/1171490990/initialization.o
 .debug_ranges  0x00000268       0x10 build/default/debug/_ext/1171490990/interrupts.o
 .debug_ranges  0x00000278       0x38 build/default/debug/_ext/1171490990/exceptions.o
 .debug_ranges  0x000002b0       0x18 build/default/debug/_ext/1171490990/startup_xc32.o
 .debug_ranges  0x000002c8       0x18 build/default/debug/_ext/1360937237/main.o
 .debug_ranges  0x000002e0       0x10 c:/program files/microchip/xc32/v2.41/bin/bin/../../lib/gcc/pic32c/6.2.1/../../../../pic32c/lib/v7e-m/fpv4-sp/hard\libpic32c.a(data_init.o)
 .debug_ranges  0x000002f0       0x10 c:/program files/microchip/xc32/v2.41/bin/bin/../../lib/gcc/pic32c/6.2.1/../../../../pic32c/lib/v7e-m/fpv4-sp/hard\libg_nano.a(lib_a-init.o)

.debug_line     0x00000000     0x1c7b
 .debug_line    0x00000000      0x1b3 build/default/debug/_ext/1984496892/plib_clock.o
 .debug_line    0x000001b3      0x12e build/default/debug/_ext/1986646378/plib_evsys.o
 .debug_line    0x000002e1      0x1ab build/default/debug/_ext/1865468468/plib_nvic.o
 .debug_line    0x0000048c      0x34c build/default/debug/_ext/1593096446/plib_nvmctrl.o
 .debug_line    0x000007d8      0x22d build/default/debug/_ext/1865521619/plib_port.o
 .debug_line    0x00000a05      0x35f build/default/debug/_ext/504274921/plib_sercom0_usart.o
 .debug_line    0x00000d64      0x35f build/default/debug/_ext/504274921/plib_sercom5_usart.o
 .debug_line    0x000010c3      0x29a build/default/debug/_ext/1171490990/initialization.o
 .debug_line    0x0000135d      0x133 build/default/debug/_ext/1171490990/interrupts.o
 .debug_line    0x00001490      0x173 build/default/debug/_ext/1171490990/exceptions.o
 .debug_line    0x00001603      0x1f9 build/default/debug/_ext/1171490990/startup_xc32.o
 .debug_line    0x000017fc      0x28a build/default/debug/_ext/1360937237/main.o
 .debug_line    0x00001a86       0xd8 c:/program files/microchip/xc32/v2.41/bin/bin/../../lib/gcc/pic32c/6.2.1/../../../../pic32c/lib/v7e-m/fpv4-sp/hard\libpic32c.a(data_init.o)
 .debug_line    0x00001b5e      0x11d c:/program files/microchip/xc32/v2.41/bin/bin/../../lib/gcc/pic32c/6.2.1/../../../../pic32c/lib/v7e-m/fpv4-sp/hard\libg_nano.a(lib_a-init.o)

.debug_str      0x00000000      0x3c7
 .debug_str     0x00000000       0x1e build/default/debug/_ext/1984496892/plib_clock.o
 .debug_str     0x0000001e        0x0 build/default/debug/_ext/1986646378/plib_evsys.o
 .debug_str     0x0000001e        0x0 build/default/debug/_ext/1865468468/plib_nvic.o
 .debug_str     0x0000001e       0x29 build/default/debug/_ext/1593096446/plib_nvmctrl.o
 .debug_str     0x00000047        0xb build/default/debug/_ext/1865521619/plib_port.o
 .debug_str     0x00000052      0x123 build/default/debug/_ext/504274921/plib_sercom0_usart.o
 .debug_str     0x00000175      0x123 build/default/debug/_ext/504274921/plib_sercom5_usart.o
 .debug_str     0x00000298       0x87 build/default/debug/_ext/1171490990/initialization.o
 .debug_str     0x0000031f        0x0 build/default/debug/_ext/1171490990/interrupts.o
 .debug_str     0x0000031f        0x0 build/default/debug/_ext/1171490990/exceptions.o
 .debug_str     0x0000031f       0x2f build/default/debug/_ext/1171490990/startup_xc32.o
 .debug_str     0x0000034e       0x79 build/default/debug/_ext/1360937237/main.o
 .debug_str     0x000003c7        0x0 c:/program files/microchip/xc32/v2.41/bin/bin/../../lib/gcc/pic32c/6.2.1/../../../../pic32c/lib/v7e-m/fpv4-sp/hard\libpic32c.a(data_init.o)
 .debug_str     0x000003c7        0x0 c:/program files/microchip/xc32/v2.41/bin/bin/../../lib/gcc/pic32c/6.2.1/../../../../pic32c/lib/v7e-m/fpv4-sp/hard\libg_nano.a(lib_a-init.o)

.debug_frame    0x00000000      0x6ec
 .debug_frame   0x00000000       0x20 build/default/debug/_ext/1984496892/plib_clock.o
 .debug_frame   0x00000020       0x20 build/default/debug/_ext/1986646378/plib_evsys.o
 .debug_frame   0x00000040       0x50 build/default/debug/_ext/1865468468/plib_nvic.o
 .debug_frame   0x00000090      0x160 build/default/debug/_ext/1593096446/plib_nvmctrl.o
 .debug_frame   0x000001f0       0xcc build/default/debug/_ext/1865521619/plib_port.o
 .debug_frame   0x000002bc      0x154 build/default/debug/_ext/504274921/plib_sercom0_usart.o
 .debug_frame   0x00000410      0x154 build/default/debug/_ext/504274921/plib_sercom5_usart.o
 .debug_frame   0x00000564       0x28 build/default/debug/_ext/1171490990/initialization.o
 .debug_frame   0x0000058c       0x20 build/default/debug/_ext/1171490990/interrupts.o
 .debug_frame   0x000005ac       0x70 build/default/debug/_ext/1171490990/exceptions.o
 .debug_frame   0x0000061c       0x38 build/default/debug/_ext/1171490990/startup_xc32.o
 .debug_frame   0x00000654       0x40 build/default/debug/_ext/1360937237/main.o
 .debug_frame   0x00000694       0x2c c:/program files/microchip/xc32/v2.41/bin/bin/../../lib/gcc/pic32c/6.2.1/../../../../pic32c/lib/v7e-m/fpv4-sp/hard\libpic32c.a(data_init.o)
 .debug_frame   0x000006c0       0x2c c:/program files/microchip/xc32/v2.41/bin/bin/../../lib/gcc/pic32c/6.2.1/../../../../pic32c/lib/v7e-m/fpv4-sp/hard\libg_nano.a(lib_a-init.o)

.debug_loc      0x00000000     0x139c
 .debug_loc     0x00000000       0x54 build/default/debug/_ext/1865468468/plib_nvic.o
 .debug_loc     0x00000054      0x42c build/default/debug/_ext/1593096446/plib_nvmctrl.o
 .debug_loc     0x00000480      0x174 build/default/debug/_ext/1865521619/plib_port.o
 .debug_loc     0x000005f4      0x601 build/default/debug/_ext/504274921/plib_sercom0_usart.o
 .debug_loc     0x00000bf5      0x601 build/default/debug/_ext/504274921/plib_sercom5_usart.o
 .debug_loc     0x000011f6       0x41 build/default/debug/_ext/1171490990/initialization.o
 .debug_loc     0x00001237       0x34 build/default/debug/_ext/1171490990/startup_xc32.o
 .debug_loc     0x0000126b       0xbd build/default/debug/_ext/1360937237/main.o
 .debug_loc     0x00001328       0x74 c:/program files/microchip/xc32/v2.41/bin/bin/../../lib/gcc/pic32c/6.2.1/../../../../pic32c/lib/v7e-m/fpv4-sp/hard\libg_nano.a(lib_a-init.o)

.stack          0x20000298      0x100
 .stack         0x20000298      0x100 stack

.bss.receiveBuffer%1
                0x20000000       0x32
 .bss.receiveBuffer
                0x20000000       0x32 build/default/debug/_ext/1360937237/main.o
                0x20000000                receiveBuffer

.data.errorMessage%2
                0x20000034       0x27
 .data.errorMessage
                0x20000034       0x27 build/default/debug/_ext/1360937237/main.o
                0x20000034                errorMessage

.bss%3          0x2000005c       0x1c
 .bss           0x2000005c       0x1c c:/program files/microchip/xc32/v2.41/bin/bin/../../lib/gcc/pic32c/6.2.1/v7e-m/fpv4-sp/hard/crtbegin.o

.data.messageStart%4
                0x20000078        0x5
 .data.messageStart
                0x20000078        0x5 build/default/debug/_ext/1360937237/main.o
                0x20000078                messageStart

.bss.data%5     0x2000005b        0x1
 .bss.data      0x2000005b        0x1 build/default/debug/_ext/1360937237/main.o
                0x2000005b                data

.eh_frame%z1    0x00000000        0x0
 .eh_frame      0x00000000        0x0 c:/program files/microchip/xc32/v2.41/bin/bin/../../lib/gcc/pic32c/6.2.1/v7e-m/fpv4-sp/hard/crtbegin.o

.text.CLOCK_Initialize%6
                0x00000284       0xe8
 .text.CLOCK_Initialize
                0x00000284       0xe8 build/default/debug/_ext/1984496892/plib_clock.o
                0x00000284                CLOCK_Initialize

.text.Reset_Handler%7
                0x0000036c       0x94
 .text.Reset_Handler
                0x0000036c       0x94 build/default/debug/_ext/1171490990/startup_xc32.o
                0x0000036c                Reset_Handler

.text.main%8    0x00000400       0x90
 .text.main     0x00000400       0x90 build/default/debug/_ext/1360937237/main.o
                0x00000400                main

.text.__pic32c_data_initialization%9
                0x00000490       0x80
 .text.__pic32c_data_initialization
                0x00000490       0x80 c:/program files/microchip/xc32/v2.41/bin/bin/../../lib/gcc/pic32c/6.2.1/../../../../pic32c/lib/v7e-m/fpv4-sp/hard\libpic32c.a(data_init.o)
                0x00000490                __pic32c_data_initialization

.dinit%10       0x00000510       0x80
 .dinit         0x00000510       0x80 data_init

.text.SERCOM5_USART_Read%11
                0x00000590       0x54
 .text.SERCOM5_USART_Read
                0x00000590       0x54 build/default/debug/_ext/504274921/plib_sercom5_usart.o
                0x00000590                SERCOM5_USART_Read

.text.__libc_init_array%12
                0x000005e4       0x48
 .text.__libc_init_array
                0x000005e4       0x48 c:/program files/microchip/xc32/v2.41/bin/bin/../../lib/gcc/pic32c/6.2.1/../../../../pic32c/lib/v7e-m/fpv4-sp/hard\libg_nano.a(lib_a-init.o)
                0x000005e4                __libc_init_array

.text%13        0x0000062c       0x40
 .text          0x0000062c       0x40 c:/program files/microchip/xc32/v2.41/bin/bin/../../lib/gcc/pic32c/6.2.1/v7e-m/fpv4-sp/hard/crtbegin.o

.text.PORT_Initialize%14
                0x0000066c       0x3c
 .text.PORT_Initialize
                0x0000066c       0x3c build/default/debug/_ext/1865521619/plib_port.o
                0x0000066c                PORT_Initialize

.text.SERCOM5_USART_Write%15
                0x000006a8       0x3c
 .text.SERCOM5_USART_Write
                0x000006a8       0x3c build/default/debug/_ext/504274921/plib_sercom5_usart.o
                0x000006a8                SERCOM5_USART_Write

.text.SERCOM0_USART_Initialize%16
                0x000006e4       0x34
 .text.SERCOM0_USART_Initialize
                0x000006e4       0x34 build/default/debug/_ext/504274921/plib_sercom0_usart.o
                0x000006e4                SERCOM0_USART_Initialize

.text.SERCOM5_USART_Initialize%17
                0x00000718       0x34
 .text.SERCOM5_USART_Initialize
                0x00000718       0x34 build/default/debug/_ext/504274921/plib_sercom5_usart.o
                0x00000718                SERCOM5_USART_Initialize

.text.SERCOM5_USART_ErrorClear%18
                0x0000074c       0x30
 .text.SERCOM5_USART_ErrorClear
                0x0000074c       0x30 build/default/debug/_ext/504274921/plib_sercom5_usart.o

.text.NVIC_Initialize%19
                0x0000077c       0x24
 .text.NVIC_Initialize
                0x0000077c       0x24 build/default/debug/_ext/1865468468/plib_nvic.o
                0x0000077c                NVIC_Initialize

.text.SYS_Initialize%20
                0x000007a0       0x20
 .text.SYS_Initialize
                0x000007a0       0x20 build/default/debug/_ext/1171490990/initialization.o
                0x000007a0                SYS_Initialize

.text.SERCOM5_USART_ErrorGet%21
                0x000007c0       0x1c
 .text.SERCOM5_USART_ErrorGet
                0x000007c0       0x1c build/default/debug/_ext/504274921/plib_sercom5_usart.o
                0x000007c0                SERCOM5_USART_ErrorGet

.text.delay_1%22
                0x000007dc       0x1c
 .text.delay_1  0x000007dc       0x1c build/default/debug/_ext/1360937237/main.o
                0x000007dc                delay_1

.text.NVMCTRL_Initialize%23
                0x000007f8       0x10
 .text.NVMCTRL_Initialize
                0x000007f8       0x10 build/default/debug/_ext/1593096446/plib_nvmctrl.o
                0x000007f8                NVMCTRL_Initialize

.text.SERCOM5_USART_ReceiverIsReady%24
                0x00000808       0x10
 .text.SERCOM5_USART_ReceiverIsReady
                0x00000808       0x10 build/default/debug/_ext/504274921/plib_sercom5_usart.o
                0x00000808                SERCOM5_USART_ReceiverIsReady

.text.Dummy_Handler%25
                0x00000818        0x4
 .text.Dummy_Handler
                0x00000818        0x4 build/default/debug/_ext/1171490990/interrupts.o
                0x00000818                EIC_EXTINT_9_Handler
                0x00000818                TCC0_MC5_Handler
                0x00000818                SVCall_Handler
                0x00000818                SERCOM0_2_Handler
                0x00000818                USB_SOF_HSOF_Handler
                0x00000818                TCC4_OTHER_Handler
                0x00000818                TCC2_MC2_Handler
                0x00000818                EVSYS_0_Handler
                0x00000818                TRNG_Handler
                0x00000818                TC2_Handler
                0x00000818                USB_TRCPT0_Handler
                0x00000818                DAC_OTHER_Handler
                0x00000818                AC_Handler
                0x00000818                DAC_EMPTY_0_Handler
                0x00000818                DMAC_OTHER_Handler
                0x00000818                EIC_EXTINT_5_Handler
                0x00000818                SERCOM3_1_Handler
                0x00000818                SysTick_Handler
                0x00000818                SERCOM4_OTHER_Handler
                0x00000818                SERCOM3_2_Handler
                0x00000818                EIC_EXTINT_6_Handler
                0x00000818                PendSV_Handler
                0x00000818                TC7_Handler
                0x00000818                TCC4_MC0_Handler
                0x00000818                EVSYS_3_Handler
                0x00000818                QSPI_Handler
                0x00000818                TCC2_MC0_Handler
                0x00000818                PDEC_OTHER_Handler
                0x00000818                TCC3_MC0_Handler
                0x00000818                PDEC_MC1_Handler
                0x00000818                TCC2_MC1_Handler
                0x00000818                OSCCTRL_XOSC1_Handler
                0x00000818                PDEC_MC0_Handler
                0x00000818                EIC_EXTINT_4_Handler
                0x00000818                EIC_EXTINT_7_Handler
                0x00000818                SERCOM0_OTHER_Handler
                0x00000818                EVSYS_OTHER_Handler
                0x00000818                SERCOM0_0_Handler
                0x00000818                RTC_Handler
                0x00000818                SERCOM4_0_Handler
                0x00000818                TCC1_MC0_Handler
                0x00000818                SERCOM1_OTHER_Handler
                0x00000818                TCC2_OTHER_Handler
                0x00000818                EIC_EXTINT_11_Handler
                0x00000818                SUPC_BODDET_Handler
                0x00000818                EIC_EXTINT_14_Handler
                0x00000818                OSC32KCTRL_Handler
                0x00000818                SERCOM6_2_Handler
                0x00000818                EVSYS_1_Handler
                0x00000818                TC6_Handler
                0x00000818                TCC4_MC1_Handler
                0x00000818                DMAC_0_Handler
                0x00000818                SUPC_OTHER_Handler
                0x00000818                WDT_Handler
                0x00000818                CAN0_Handler
                0x00000818                EIC_EXTINT_15_Handler
                0x00000818                SERCOM6_0_Handler
                0x00000818                EIC_EXTINT_1_Handler
                0x00000818                TCC3_MC1_Handler
                0x00000818                SERCOM5_0_Handler
                0x00000818                TC4_Handler
                0x00000818                TC1_Handler
                0x00000818                TCC1_MC1_Handler
                0x00000818                EIC_EXTINT_0_Handler
                0x00000818                TCC1_OTHER_Handler
                0x00000818                PAC_Handler
                0x00000818                SERCOM4_1_Handler
                0x00000818                TC3_Handler
                0x00000818                Dummy_Handler
                0x00000818                DAC_RESRDY_0_Handler
                0x00000818                SERCOM5_1_Handler
                0x00000818                DMAC_2_Handler
                0x00000818                TCC0_MC4_Handler
                0x00000818                USB_TRCPT1_Handler
                0x00000818                SERCOM0_1_Handler
                0x00000818                TCC0_MC3_Handler
                0x00000818                EIC_EXTINT_12_Handler
                0x00000818                OSCCTRL_DPLL0_Handler
                0x00000818                SERCOM6_OTHER_Handler
                0x00000818                SERCOM7_1_Handler
                0x00000818                SERCOM5_OTHER_Handler
                0x00000818                PM_Handler
                0x00000818                OSCCTRL_DFLL_Handler
                0x00000818                SERCOM7_0_Handler
                0x00000818                DAC_RESRDY_1_Handler
                0x00000818                DMAC_1_Handler
                0x00000818                USB_OTHER_Handler
                0x00000818                GMAC_Handler
                0x00000818                SDHC1_Handler
                0x00000818                SERCOM7_2_Handler
                0x00000818                CAN1_Handler
                0x00000818                TCC0_OTHER_Handler
                0x00000818                EIC_EXTINT_10_Handler
                0x00000818                TCC1_MC3_Handler
                0x00000818                OSCCTRL_XOSC0_Handler
                0x00000818                SERCOM6_1_Handler
                0x00000818                TCC0_MC0_Handler
                0x00000818                EIC_EXTINT_2_Handler
                0x00000818                SDHC0_Handler
                0x00000818                SERCOM1_1_Handler
                0x00000818                I2S_Handler
                0x00000818                PCC_Handler
                0x00000818                TCC3_OTHER_Handler
                0x00000818                EIC_EXTINT_13_Handler
                0x00000818                SERCOM1_0_Handler
                0x00000818                PUKCC_Handler
                0x00000818                SERCOM2_1_Handler
                0x00000818                SERCOM1_2_Handler
                0x00000818                SERCOM3_0_Handler
                0x00000818                SERCOM4_2_Handler
                0x00000818                TCC1_MC2_Handler
                0x00000818                ADC1_RESRDY_Handler
                0x00000818                NVMCTRL_1_Handler
                0x00000818                SERCOM5_2_Handler
                0x00000818                SERCOM2_2_Handler
                0x00000818                DAC_EMPTY_1_Handler
                0x00000818                ADC1_OTHER_Handler
                0x00000818                OSCCTRL_DPLL1_Handler
                0x00000818                EIC_EXTINT_3_Handler
                0x00000818                SERCOM3_OTHER_Handler
                0x00000818                EIC_EXTINT_8_Handler
                0x00000818                NVMCTRL_0_Handler
                0x00000818                ADC0_RESRDY_Handler
                0x00000818                ADC0_OTHER_Handler
                0x00000818                MCLK_Handler
                0x00000818                SERCOM7_OTHER_Handler
                0x00000818                EVSYS_2_Handler
                0x00000818                SERCOM2_OTHER_Handler
                0x00000818                FREQM_Handler
                0x00000818                TC0_Handler
                0x00000818                TCC0_MC1_Handler
                0x00000818                DMAC_3_Handler
                0x00000818                RAMECC_Handler
                0x00000818                TC5_Handler
                0x00000818                SERCOM2_0_Handler
                0x00000818                AES_Handler
                0x00000818                ICM_Handler
                0x00000818                TCC0_MC2_Handler

.text.NonMaskableInt_Handler%26
                0x0000081c        0x4
 .text.NonMaskableInt_Handler
                0x0000081c        0x4 build/default/debug/_ext/1171490990/exceptions.o
                0x0000081c                NonMaskableInt_Handler

.text.HardFault_Handler%27
                0x00000820        0x4
 .text.HardFault_Handler
                0x00000820        0x4 build/default/debug/_ext/1171490990/exceptions.o
                0x00000820                HardFault_Handler

.text.DebugMonitor_Handler%28
                0x00000824        0x4
 .text.DebugMonitor_Handler
                0x00000824        0x4 build/default/debug/_ext/1171490990/exceptions.o
                0x00000824                DebugMonitor_Handler

.text.MemoryManagement_Handler%29
                0x00000828        0x4
 .text.MemoryManagement_Handler
                0x00000828        0x4 build/default/debug/_ext/1171490990/exceptions.o
                0x00000828                MemoryManagement_Handler

.text.BusFault_Handler%30
                0x0000082c        0x4
 .text.BusFault_Handler
                0x0000082c        0x4 build/default/debug/_ext/1171490990/exceptions.o
                0x0000082c                BusFault_Handler

.text.UsageFault_Handler%31
                0x00000830        0x4
 .text.UsageFault_Handler
                0x00000830        0x4 build/default/debug/_ext/1171490990/exceptions.o
                0x00000830                UsageFault_Handler

.text.EVSYS_Initialize%32
                0x00000834        0x2
 .text.EVSYS_Initialize
                0x00000834        0x2 build/default/debug/_ext/1986646378/plib_evsys.o
                0x00000834                EVSYS_Initialize

.text.Dummy_App_Func%33
                0x00000836        0x2
 .text.Dummy_App_Func
                0x00000836        0x2 build/default/debug/_ext/1171490990/startup_xc32.o
                0x00000836                _on_reset
                0x00000836                _on_bootstrap
                0x00000836                __xc32_on_reset
                0x00000836                Dummy_App_Func
                0x00000836                __xc32_on_bootstrap
